target datalayout = "e-m:e-p270:32:32-p271:32:32-p272:64:64-i64:64-i128:128-f80:128-n8:16:32:64-S128"
target triple = "x86_64-unknown-linux-gnu"

%"class.std::chrono::duration" = type { i64 }
%"class.proxygen::SessionPool" = type { %"class.proxygen::SessionHolder::Callback", ptr, i32, %"class.std::chrono::duration", %"class.std::chrono::duration", %"class.boost::intrusive::list", %"class.boost::intrusive::list", %"class.boost::intrusive::list", ptr, ptr, ptr }
%"class.proxygen::SessionHolder::Callback" = type { ptr }
%"class.boost::intrusive::list" = type { %"class.boost::intrusive::list_impl" }
%"class.boost::intrusive::list_impl" = type { %"struct.boost::intrusive::list_impl<boost::intrusive::mhtraits<proxygen::SessionHolder, boost::intrusive::list_member_hook<boost::intrusive::link_mode<boost::intrusive::safe_link>>, &proxygen::SessionHolder::listHook>, unsigned long, true, void>::data_t" }
%"struct.boost::intrusive::list_impl<boost::intrusive::mhtraits<proxygen::SessionHolder, boost::intrusive::list_member_hook<boost::intrusive::link_mode<boost::intrusive::safe_link>>, &proxygen::SessionHolder::listHook>, unsigned long, true, void>::data_t" = type { %"struct.boost::intrusive::list_impl<boost::intrusive::mhtraits<proxygen::SessionHolder, boost::intrusive::list_member_hook<boost::intrusive::link_mode<boost::intrusive::safe_link>>, &proxygen::SessionHolder::listHook>, unsigned long, true, void>::root_plus_size" }
%"struct.boost::intrusive::list_impl<boost::intrusive::mhtraits<proxygen::SessionHolder, boost::intrusive::list_member_hook<boost::intrusive::link_mode<boost::intrusive::safe_link>>, &proxygen::SessionHolder::listHook>, unsigned long, true, void>::root_plus_size" = type { %"struct.boost::intrusive::detail::size_holder", %"struct.boost::intrusive::detail::default_header_holder" }
%"struct.boost::intrusive::detail::size_holder" = type { i64 }
%"struct.boost::intrusive::detail::default_header_holder" = type { %"struct.boost::intrusive::list_node" }
%"struct.boost::intrusive::list_node" = type { ptr, ptr }
%"class.proxygen::Endpoint" = type <{ %"class.std::__cxx11::basic_string", i16, [6 x i8], i64, i8, [7 x i8] }>
%"class.std::__cxx11::basic_string" = type { %"struct.std::__cxx11::basic_string<char>::_Alloc_hider", i64, %union.anon }
%"struct.std::__cxx11::basic_string<char>::_Alloc_hider" = type { ptr }
%union.anon = type { i64, [8 x i8] }
%"class.std::allocator" = type { i8 }
%"struct.std::hash.67" = type { i8 }

@.str.2 = private unnamed_addr constant [1 x i8] zeroinitializer, align 1
@.str.9 = private unnamed_addr constant [50 x i8] c"basic_string: construction from null is not valid\00", align 1

; Function Attrs: mustprogress uwtable
define linkonce_odr noundef i64 @_ZNSt10_Hash_impl4hashEPKvmm(ptr noundef %__ptr, i64 noundef %__clength, i64 noundef %__seed) #4 comdat align 2 {
entry:
  %__ptr.addr = alloca ptr, align 8
  %__clength.addr = alloca i64, align 8
  %__seed.addr = alloca i64, align 8
  store ptr %__ptr, ptr %__ptr.addr, align 8
  store i64 %__clength, ptr %__clength.addr, align 8
  store i64 %__seed, ptr %__seed.addr, align 8
  %0 = load ptr, ptr %__ptr.addr, align 8
  %1 = load i64, ptr %__clength.addr, align 8
  %2 = load i64, ptr %__seed.addr, align 8
  %call = call noundef i64 @_ZSt11_Hash_bytesPKvmm(ptr noundef %0, i64 noundef %1, i64 noundef %2)
  ret i64 %call
}

; Function Attrs: mustprogress nounwind uwtable
define linkonce_odr noundef i64 @_ZNKSt4hashINSt7__cxx1112basic_stringIcSt11char_traitsIcESaIcEEEEclERKS5_(ptr noundef nonnull align 1 dereferenceable(1) %this, ptr noundef nonnull align 8 dereferenceable(32) %__s) #5 comdat align 2 personality ptr @__gxx_personality_v0 {
entry:
  %this.addr = alloca ptr, align 8
  %__s.addr = alloca ptr, align 8
  store ptr %this, ptr %this.addr, align 8
  store ptr %__s, ptr %__s.addr, align 8
  %0 = load ptr, ptr %__s.addr, align 8
  %call = call noundef ptr @_ZNKSt7__cxx1112basic_stringIcSt11char_traitsIcESaIcEE4dataEv(ptr noundef nonnull align 8 dereferenceable(32) %0) #3
  %1 = load ptr, ptr %__s.addr, align 8
  %call2 = call noundef i64 @_ZNKSt7__cxx1112basic_stringIcSt11char_traitsIcESaIcEE6lengthEv(ptr noundef nonnull align 8 dereferenceable(32) %1) #3
  %call3 = invoke noundef i64 @_ZNSt10_Hash_impl4hashEPKvmm(ptr noundef %call, i64 noundef %call2, i64 noundef 3339675911)
          to label %invoke.cont unwind label %terminate.lpad

invoke.cont:                                      ; preds = %entry
  ret i64 %call3

terminate.lpad:                                   ; preds = %entry
  %2 = landingpad { ptr, i32 }
          catch ptr null
  %3 = extractvalue { ptr, i32 } %2, 0
  call void @__clang_call_terminate(ptr %3) #15
  unreachable
}

; Function Attrs: mustprogress nounwind uwtable
define linkonce_odr noundef i64 @_ZNSt11char_traitsIcE6lengthEPKc(ptr noundef %__s) #5 comdat align 2 {
entry:
  %__s.addr = alloca ptr, align 8
  store ptr %__s, ptr %__s.addr, align 8
  %0 = load ptr, ptr %__s.addr, align 8
  %call = call i64 @strlen(ptr noundef %0) #3
  ret i64 %call
}

; Function Attrs: mustprogress nounwind uwtable
define linkonce_odr void @_ZNSt7__cxx1112basic_stringIcSt11char_traitsIcESaIcEE12_Alloc_hiderD2Ev(ptr noundef nonnull align 8 dereferenceable(8) %this) unnamed_addr #5 comdat align 2 {
entry:
  %this.addr = alloca ptr, align 8
  store ptr %this, ptr %this.addr, align 8
  %this1 = load ptr, ptr %this.addr, align 8
  call void @_ZNSaIcED2Ev(ptr noundef nonnull align 1 dereferenceable(1) %this1) #3
  ret void
}

; Function Attrs: mustprogress nounwind uwtable
define linkonce_odr void @_ZN8proxygen8EndpointD2Ev(ptr noundef nonnull align 8 dereferenceable(49) %this) unnamed_addr #5 comdat align 2 {
entry:
  %this.addr = alloca ptr, align 8
  store ptr %this, ptr %this.addr, align 8
  %this1 = load ptr, ptr %this.addr, align 8
  %hostname_ = getelementptr inbounds %"class.proxygen::Endpoint", ptr %this1, i32 0, i32 0
  call void @_ZNSt7__cxx1112basic_stringIcSt11char_traitsIcESaIcEED1Ev(ptr noundef nonnull align 8 dereferenceable(32) %hostname_) #3
  ret void
}

; Function Attrs: mustprogress uwtable
define linkonce_odr void @_ZN8proxygen8EndpointC2ERKNSt7__cxx1112basic_stringIcSt11char_traitsIcESaIcEEEtb(ptr noundef nonnull align 8 dereferenceable(49) %this, ptr noundef nonnull align 8 dereferenceable(32) %hostname, i16 noundef zeroext %port, i1 noundef zeroext %isSecure) unnamed_addr #4 comdat align 2 {
entry:
  %this.addr = alloca ptr, align 8
  %hostname.addr = alloca ptr, align 8
  %port.addr = alloca i16, align 2
  %isSecure.addr = alloca i8, align 1
  %ref.tmp = alloca %"struct.std::hash.67", align 1
  store ptr %this, ptr %this.addr, align 8
  store ptr %hostname, ptr %hostname.addr, align 8
  store i16 %port, ptr %port.addr, align 2
  %frombool = zext i1 %isSecure to i8
  store i8 %frombool, ptr %isSecure.addr, align 1
  %this1 = load ptr, ptr %this.addr, align 8
  %hostname_ = getelementptr inbounds %"class.proxygen::Endpoint", ptr %this1, i32 0, i32 0
  %0 = load ptr, ptr %hostname.addr, align 8
  call void @_ZNSt7__cxx1112basic_stringIcSt11char_traitsIcESaIcEEC1ERKS4_(ptr noundef nonnull align 8 dereferenceable(32) %hostname_, ptr noundef nonnull align 8 dereferenceable(32) %0)
  %port_ = getelementptr inbounds %"class.proxygen::Endpoint", ptr %this1, i32 0, i32 1
  %1 = load i16, ptr %port.addr, align 2
  store i16 %1, ptr %port_, align 8
  %hash_ = getelementptr inbounds %"class.proxygen::Endpoint", ptr %this1, i32 0, i32 3
  store i64 0, ptr %hash_, align 8
  %isSecure_ = getelementptr inbounds %"class.proxygen::Endpoint", ptr %this1, i32 0, i32 4
  %2 = load i8, ptr %isSecure.addr, align 1
  %tobool = trunc i8 %2 to i1
  %frombool2 = zext i1 %tobool to i8
  store i8 %frombool2, ptr %isSecure_, align 8
  %hostname_3 = getelementptr inbounds %"class.proxygen::Endpoint", ptr %this1, i32 0, i32 0
  %call = call noundef i64 @_ZNKSt4hashINSt7__cxx1112basic_stringIcSt11char_traitsIcESaIcEEEEclERKS5_(ptr noundef nonnull align 1 dereferenceable(1) %ref.tmp, ptr noundef nonnull align 8 dereferenceable(32) %hostname_3) #3
  %port_4 = getelementptr inbounds %"class.proxygen::Endpoint", ptr %this1, i32 0, i32 1
  %3 = load i16, ptr %port_4, align 8
  %conv = zext i16 %3 to i32
  %shl = shl i32 %conv, 1
  %conv5 = sext i32 %shl to i64
  %xor = xor i64 %call, %conv5
  %isSecure_6 = getelementptr inbounds %"class.proxygen::Endpoint", ptr %this1, i32 0, i32 4
  %4 = load i8, ptr %isSecure_6, align 8
  %tobool7 = trunc i8 %4 to i1
  %conv8 = zext i1 %tobool7 to i32
  %shl9 = shl i32 %conv8, 17
  %conv10 = sext i32 %shl9 to i64
  %xor11 = xor i64 %xor, %conv10
  %hash_12 = getelementptr inbounds %"class.proxygen::Endpoint", ptr %this1, i32 0, i32 3
  store i64 %xor11, ptr %hash_12, align 8
  ret void
}

; Function Attrs: mustprogress uwtable
define linkonce_odr void @_ZNSt7__cxx1112basic_stringIcSt11char_traitsIcESaIcEEC2IS3_EEPKcRKS3_(ptr noundef nonnull align 8 dereferenceable(32) %this, ptr noundef %__s, ptr noundef nonnull align 1 dereferenceable(1) %__a) unnamed_addr #4 comdat align 2 personality ptr @__gxx_personality_v0 {
entry:
  %this.addr = alloca ptr, align 8
  %__s.addr = alloca ptr, align 8
  %__a.addr = alloca ptr, align 8
  %exn.slot = alloca ptr, align 8
  %ehselector.slot = alloca i32, align 4
  %__end = alloca ptr, align 8
  store ptr %this, ptr %this.addr, align 8
  store ptr %__s, ptr %__s.addr, align 8
  store ptr %__a, ptr %__a.addr, align 8
  %this1 = load ptr, ptr %this.addr, align 8
  %_M_dataplus = getelementptr inbounds %"class.std::__cxx11::basic_string", ptr %this1, i32 0, i32 0
  %call = call noundef ptr @_ZNSt7__cxx1112basic_stringIcSt11char_traitsIcESaIcEE13_M_local_dataEv(ptr noundef nonnull align 8 dereferenceable(32) %this1)
  %0 = load ptr, ptr %__a.addr, align 8
  call void @_ZNSt7__cxx1112basic_stringIcSt11char_traitsIcESaIcEE12_Alloc_hiderC1EPcRKS3_(ptr noundef nonnull align 8 dereferenceable(8) %_M_dataplus, ptr noundef %call, ptr noundef nonnull align 1 dereferenceable(1) %0)
  %1 = load ptr, ptr %__s.addr, align 8
  %cmp = icmp eq ptr %1, null
  br i1 %cmp, label %if.then, label %if.end

if.then:                                          ; preds = %entry
  invoke void @_ZSt19__throw_logic_errorPKc(ptr noundef @.str.9) #18
          to label %invoke.cont unwind label %lpad

invoke.cont:                                      ; preds = %if.then
  unreachable

lpad:                                             ; preds = %invoke.cont2, %if.end, %if.then
  %2 = landingpad { ptr, i32 }
          cleanup
  %3 = extractvalue { ptr, i32 } %2, 0
  store ptr %3, ptr %exn.slot, align 8
  %4 = extractvalue { ptr, i32 } %2, 1
  store i32 %4, ptr %ehselector.slot, align 4
  call void @_ZNSt7__cxx1112basic_stringIcSt11char_traitsIcESaIcEE12_Alloc_hiderD2Ev(ptr noundef nonnull align 8 dereferenceable(8) %_M_dataplus) #3
  br label %eh.resume

if.end:                                           ; preds = %entry
  %5 = load ptr, ptr %__s.addr, align 8
  %6 = load ptr, ptr %__s.addr, align 8
  %call3 = invoke noundef i64 @_ZNSt11char_traitsIcE6lengthEPKc(ptr noundef %6)
          to label %invoke.cont2 unwind label %lpad

invoke.cont2:                                     ; preds = %if.end
  %add.ptr = getelementptr inbounds i8, ptr %5, i64 %call3
  store ptr %add.ptr, ptr %__end, align 8
  %7 = load ptr, ptr %__s.addr, align 8
  %8 = load ptr, ptr %__end, align 8
  invoke void @_ZNSt7__cxx1112basic_stringIcSt11char_traitsIcESaIcEE12_M_constructIPKcEEvT_S8_St20forward_iterator_tag(ptr noundef nonnull align 8 dereferenceable(32) %this1, ptr noundef %7, ptr noundef %8)
          to label %invoke.cont4 unwind label %lpad

invoke.cont4:                                     ; preds = %invoke.cont2
  ret void

eh.resume:                                        ; preds = %lpad
  %exn = load ptr, ptr %exn.slot, align 8
  %sel = load i32, ptr %ehselector.slot, align 4
  %lpad.val = insertvalue { ptr, i32 } poison, ptr %exn, 0
  %lpad.val5 = insertvalue { ptr, i32 } %lpad.val, i32 %sel, 1
  resume { ptr, i32 } %lpad.val5
}

; Function Attrs: mustprogress uwtable
define void @_ZN8proxygen11SessionPool10putSessionEPNS_15HTTPSessionBaseE(ptr noundef nonnull align 8 dereferenceable(136) %this, ptr noundef %session) #4 align 2 personality ptr @__gxx_personality_v0 {
entry:
  %this.addr = alloca ptr, align 8
  %session.addr = alloca ptr, align 8
  %holder = alloca ptr, align 8
  %agg.tmp = alloca %"class.proxygen::Endpoint", align 8
  %ref.tmp = alloca %"class.std::__cxx11::basic_string", align 8
  %ref.tmp3 = alloca %"class.std::allocator", align 1
  %exn.slot = alloca ptr, align 8
  %ehselector.slot = alloca i32, align 4
  %cleanup.isactive = alloca i1, align 1
  store ptr %this, ptr %this.addr, align 8
  store ptr %session, ptr %session.addr, align 8
  %this1 = load ptr, ptr %this.addr, align 8
  %0 = load ptr, ptr %session.addr, align 8
  %call = call noundef zeroext i1 @_ZN8proxygen13SessionHolder10isPoolableEPKNS_15HTTPSessionBaseE(ptr noundef %0)
  br i1 %call, label %if.then, label %if.else

if.then:                                          ; preds = %entry
  %call2 = call noalias noundef nonnull ptr @_Znwm(i64 noundef 152) #17
  store i1 true, ptr %cleanup.isactive, align 1
  %1 = load ptr, ptr %session.addr, align 8
  %stats_ = getelementptr inbounds %"class.proxygen::SessionPool", ptr %this1, i32 0, i32 1
  %2 = load ptr, ptr %stats_, align 8
  call void @_ZNSaIcEC1Ev(ptr noundef nonnull align 1 dereferenceable(1) %ref.tmp3) #3
  invoke void @_ZNSt7__cxx1112basic_stringIcSt11char_traitsIcESaIcEEC2IS3_EEPKcRKS3_(ptr noundef nonnull align 8 dereferenceable(32) %ref.tmp, ptr noundef @.str.2, ptr noundef nonnull align 1 dereferenceable(1) %ref.tmp3)
          to label %invoke.cont unwind label %lpad

invoke.cont:                                      ; preds = %if.then
  invoke void @_ZN8proxygen8EndpointC2ERKNSt7__cxx1112basic_stringIcSt11char_traitsIcESaIcEEEtb(ptr noundef nonnull align 8 dereferenceable(49) %agg.tmp, ptr noundef nonnull align 8 dereferenceable(32) %ref.tmp, i16 noundef zeroext 0, i1 noundef zeroext false)
          to label %invoke.cont5 unwind label %lpad4

invoke.cont5:                                     ; preds = %invoke.cont
  invoke void @_ZN8proxygen13SessionHolderC1EPNS_15HTTPSessionBaseEPNS0_8CallbackEPNS0_5StatsENS_8EndpointE(ptr noundef nonnull align 8 dereferenceable(152) %call2, ptr noundef %1, ptr noundef %this1, ptr noundef %2, ptr noundef %agg.tmp)
          to label %invoke.cont7 unwind label %lpad6

invoke.cont7:                                     ; preds = %invoke.cont5
  store i1 false, ptr %cleanup.isactive, align 1
  call void @_ZN8proxygen8EndpointD2Ev(ptr noundef nonnull align 8 dereferenceable(49) %agg.tmp) #3
  call void @_ZNSt7__cxx1112basic_stringIcSt11char_traitsIcESaIcEED1Ev(ptr noundef nonnull align 8 dereferenceable(32) %ref.tmp) #3
  call void @_ZNSaIcED1Ev(ptr noundef nonnull align 1 dereferenceable(1) %ref.tmp3) #3
  store ptr %call2, ptr %holder, align 8
  %3 = load ptr, ptr %holder, align 8
  call void @_ZN8proxygen13SessionHolder4linkEv(ptr noundef nonnull align 8 dereferenceable(152) %3)
  br label %if.end

lpad:                                             ; preds = %if.then
  %4 = landingpad { ptr, i32 }
          cleanup
  %5 = extractvalue { ptr, i32 } %4, 0
  store ptr %5, ptr %exn.slot, align 8
  %6 = extractvalue { ptr, i32 } %4, 1
  store i32 %6, ptr %ehselector.slot, align 4
  br label %ehcleanup8

lpad4:                                            ; preds = %invoke.cont
  %7 = landingpad { ptr, i32 }
          cleanup
  %8 = extractvalue { ptr, i32 } %7, 0
  store ptr %8, ptr %exn.slot, align 8
  %9 = extractvalue { ptr, i32 } %7, 1
  store i32 %9, ptr %ehselector.slot, align 4
  br label %ehcleanup

lpad6:                                            ; preds = %invoke.cont5
  %10 = landingpad { ptr, i32 }
          cleanup
  %11 = extractvalue { ptr, i32 } %10, 0
  store ptr %11, ptr %exn.slot, align 8
  %12 = extractvalue { ptr, i32 } %10, 1
  store i32 %12, ptr %ehselector.slot, align 4
  call void @_ZN8proxygen8EndpointD2Ev(ptr noundef nonnull align 8 dereferenceable(49) %agg.tmp) #3
  br label %ehcleanup

ehcleanup:                                        ; preds = %lpad6, %lpad4
  call void @_ZNSt7__cxx1112basic_stringIcSt11char_traitsIcESaIcEED1Ev(ptr noundef nonnull align 8 dereferenceable(32) %ref.tmp) #3
  br label %ehcleanup8

ehcleanup8:                                       ; preds = %ehcleanup, %lpad
  call void @_ZNSaIcED1Ev(ptr noundef nonnull align 1 dereferenceable(1) %ref.tmp3) #3
  %cleanup.is_active = load i1, ptr %cleanup.isactive, align 1
  br i1 %cleanup.is_active, label %cleanup.action, label %cleanup.done

cleanup.action:                                   ; preds = %ehcleanup8
  call void @_ZdlPv(ptr noundef %call2) #16
  br label %cleanup.done

cleanup.done:                                     ; preds = %cleanup.action, %ehcleanup8
  br label %eh.resume

if.else:                                          ; preds = %entry
  %13 = load ptr, ptr %session.addr, align 8
  %vtable = load ptr, ptr %this1, align 8
  %vfn = getelementptr inbounds ptr, ptr %vtable, i64 8
  %14 = load ptr, ptr %vfn, align 8
  call void %14(ptr noundef nonnull align 8 dereferenceable(136) %this1, ptr noundef %13)
  %15 = load ptr, ptr %session.addr, align 8
  %vtable10 = load ptr, ptr %15, align 8
  %vfn11 = getelementptr inbounds ptr, ptr %vtable10, i64 54
  %16 = load ptr, ptr %vfn11, align 8
  call void %16(ptr noundef nonnull align 8 dereferenceable(1582) %15)
  br label %if.end

if.end:                                           ; preds = %if.else, %invoke.cont7
  call void @_ZN8proxygen11SessionPool23purgeExcessIdleSessionsEv(ptr noundef nonnull align 8 dereferenceable(136) %this1)
  ret void

eh.resume:                                        ; preds = %cleanup.done
  %exn = load ptr, ptr %exn.slot, align 8
  %sel = load i32, ptr %ehselector.slot, align 4
  %lpad.val = insertvalue { ptr, i32 } poison, ptr %exn, 0
  %lpad.val12 = insertvalue { ptr, i32 } %lpad.val, i32 %sel, 1
  resume { ptr, i32 } %lpad.val12
}