; Function Attrs: mustprogress uwtable
define void @_ZN8proxygen11SessionPool10putSessionEPNS_15HTTPSessionBaseE(ptr noundef nonnull align 8 dereferenceable(136) %this, ptr noundef %session) local_unnamed_addr #3 align 2 personality ptr @__gxx_personality_v0 {
entry:
  %agg.tmp = alloca %"class.proxygen::Endpoint", align 8
  %ref.tmp = alloca %"class.std::__cxx11::basic_string", align 8
  %ref.tmp3 = alloca %"class.std::allocator", align 1
  %call = tail call noundef zeroext i1 @_ZN8proxygen13SessionHolder10isPoolableEPKNS_15HTTPSessionBaseE(ptr noundef %session)
  br i1 %call, label %if.then, label %if.else

if.then:                                          ; preds = %entry
  %call2 = tail call noalias noundef nonnull dereferenceable(152) ptr @_Znwm(i64 noundef 152) #21
  %stats_ = getelementptr inbounds i8, ptr %this, i64 8
  %0 = load ptr, ptr %stats_, align 8
  call void @_ZNSaIcEC1Ev(ptr noundef nonnull align 1 dereferenceable(1) %ref.tmp3) #19
  %call.i6 = invoke noundef ptr @_ZNSt7__cxx1112basic_stringIcSt11char_traitsIcESaIcEE13_M_local_dataEv(ptr noundef nonnull align 8 dereferenceable(32) %ref.tmp)
          to label %call.i.noexc unwind label %lpad

call.i.noexc:                                     ; preds = %if.then
  invoke void @_ZNSt7__cxx1112basic_stringIcSt11char_traitsIcESaIcEE12_Alloc_hiderC1EPcRKS3_(ptr noundef nonnull align 8 dereferenceable(8) %ref.tmp, ptr noundef %call.i6, ptr noundef nonnull align 1 dereferenceable(1) %ref.tmp3)
          to label %.noexc unwind label %lpad

.noexc:                                           ; preds = %call.i.noexc
  invoke void @_ZNSt7__cxx1112basic_stringIcSt11char_traitsIcESaIcEE12_M_constructIPKcEEvT_S8_St20forward_iterator_tag(ptr noundef nonnull align 8 dereferenceable(32) %ref.tmp, ptr noundef nonnull @.str.2, ptr noundef nonnull @.str.2)
          to label %invoke.cont unwind label %lpad.i

lpad.i:                                           ; preds = %.noexc
  %1 = landingpad { ptr, i32 }
          cleanup
  call void @_ZNSaIcED2Ev(ptr noundef nonnull align 1 dereferenceable(1) %ref.tmp) #19
  br label %ehcleanup8

invoke.cont:                                      ; preds = %.noexc
  invoke void @_ZNSt7__cxx1112basic_stringIcSt11char_traitsIcESaIcEEC1ERKS4_(ptr noundef nonnull align 8 dereferenceable(32) %agg.tmp, ptr noundef nonnull align 8 dereferenceable(32) %ref.tmp)
          to label %.noexc8 unwind label %lpad4

.noexc8:                                          ; preds = %invoke.cont
  %port_.i = getelementptr inbounds i8, ptr %agg.tmp, i64 32
  store i16 0, ptr %port_.i, align 8
  %hash_.i = getelementptr inbounds i8, ptr %agg.tmp, i64 40
  store i64 0, ptr %hash_.i, align 8
  %isSecure_.i = getelementptr inbounds i8, ptr %agg.tmp, i64 48
  store i8 0, ptr %isSecure_.i, align 8
  %call.i.i7 = call noundef ptr @_ZNKSt7__cxx1112basic_stringIcSt11char_traitsIcESaIcEE4dataEv(ptr noundef nonnull align 8 dereferenceable(32) %agg.tmp) #19
  %call2.i.i = call noundef i64 @_ZNKSt7__cxx1112basic_stringIcSt11char_traitsIcESaIcEE6lengthEv(ptr noundef nonnull align 8 dereferenceable(32) %agg.tmp) #19
  %call.i2.i.i = invoke noundef i64 @_ZSt11_Hash_bytesPKvmm(ptr noundef %call.i.i7, i64 noundef %call2.i.i, i64 noundef 3339675911)
          to label %invoke.cont5 unwind label %terminate.lpad.i.i

terminate.lpad.i.i:                               ; preds = %.noexc8
  %2 = landingpad { ptr, i32 }
          catch ptr null
  %3 = extractvalue { ptr, i32 } %2, 0
  call void @__clang_call_terminate(ptr %3) #18
  unreachable

invoke.cont5:                                     ; preds = %.noexc8
  %4 = load i16, ptr %port_.i, align 8
  %conv.i = zext i16 %4 to i64
  %shl.i = shl nuw nsw i64 %conv.i, 1
  %xor.i = xor i64 %shl.i, %call.i2.i.i
  %5 = load i8, ptr %isSecure_.i, align 8
  %6 = and i8 %5, 1
  %conv8.i = zext nneg i8 %6 to i64
  %shl9.i = shl nuw nsw i64 %conv8.i, 17
  %xor11.i = xor i64 %xor.i, %shl9.i
  store i64 %xor11.i, ptr %hash_.i, align 8
  invoke void @_ZN8proxygen13SessionHolderC1EPNS_15HTTPSessionBaseEPNS0_8CallbackEPNS0_5StatsENS_8EndpointE(ptr noundef nonnull align 8 dereferenceable(152) %call2, ptr noundef %session, ptr noundef nonnull %this, ptr noundef %0, ptr noundef nonnull %agg.tmp)
          to label %invoke.cont7 unwind label %lpad6

invoke.cont7:                                     ; preds = %invoke.cont5
  call void @_ZNSt7__cxx1112basic_stringIcSt11char_traitsIcESaIcEED1Ev(ptr noundef nonnull align 8 dereferenceable(32) %agg.tmp) #19
  call void @_ZNSt7__cxx1112basic_stringIcSt11char_traitsIcESaIcEED1Ev(ptr noundef nonnull align 8 dereferenceable(32) %ref.tmp) #19
  call void @_ZNSaIcED1Ev(ptr noundef nonnull align 1 dereferenceable(1) %ref.tmp3) #19
  call void @_ZN8proxygen13SessionHolder4linkEv(ptr noundef nonnull align 8 dereferenceable(152) %call2)
  br label %if.end

lpad:                                             ; preds = %call.i.noexc, %if.then
  %7 = landingpad { ptr, i32 }
          cleanup
  br label %ehcleanup8

lpad4:                                            ; preds = %invoke.cont
  %8 = landingpad { ptr, i32 }
          cleanup
  br label %ehcleanup

lpad6:                                            ; preds = %invoke.cont5
  %9 = landingpad { ptr, i32 }
          cleanup
  call void @_ZNSt7__cxx1112basic_stringIcSt11char_traitsIcESaIcEED1Ev(ptr noundef nonnull align 8 dereferenceable(32) %agg.tmp) #19
  br label %ehcleanup

ehcleanup:                                        ; preds = %lpad6, %lpad4
  %.pn = phi { ptr, i32 } [ %9, %lpad6 ], [ %8, %lpad4 ]
  call void @_ZNSt7__cxx1112basic_stringIcSt11char_traitsIcESaIcEED1Ev(ptr noundef nonnull align 8 dereferenceable(32) %ref.tmp) #19
  br label %ehcleanup8

ehcleanup8:                                       ; preds = %lpad, %lpad.i, %ehcleanup
  %.pn.pn = phi { ptr, i32 } [ %.pn, %ehcleanup ], [ %7, %lpad ], [ %1, %lpad.i ]
  call void @_ZNSaIcED1Ev(ptr noundef nonnull align 1 dereferenceable(1) %ref.tmp3) #19
  call void @_ZdlPv(ptr noundef nonnull %call2) #20
  resume { ptr, i32 } %.pn.pn

if.else:                                          ; preds = %entry
  %vtable = load ptr, ptr %this, align 8
  %vfn = getelementptr inbounds i8, ptr %vtable, i64 64
  %10 = load ptr, ptr %vfn, align 8
  tail call void %10(ptr noundef nonnull align 8 dereferenceable(136) %this, ptr noundef %session)
  %vtable10 = load ptr, ptr %session, align 8
  %vfn11 = getelementptr inbounds i8, ptr %vtable10, i64 432
  %11 = load ptr, ptr %vfn11, align 8
  tail call void %11(ptr noundef nonnull align 8 dereferenceable(1582) %session)
  br label %if.end

if.end:                                           ; preds = %if.else, %invoke.cont7
  call void @_ZN8proxygen11SessionPool23purgeExcessIdleSessionsEv(ptr noundef nonnull align 8 dereferenceable(136) %this)
  ret void
}